; Function Attrs: nounwind uwtable
define ptr @l_StateT_instMonad___rarg___lambda__6(ptr noundef %0, ptr readnone captures(none) %1, ptr readnone captures(none) %2, ptr noundef %3, ptr noundef %4, ptr noundef %5) #0 {
  %7 = getelementptr inbounds nuw i8, ptr %0, i64 16
  %8 = load ptr, ptr %7, align 8, !tbaa !9
  %9 = ptrtoint ptr %8 to i64
  %10 = and i64 %9, 1
  %.not = icmp eq i64 %10, 0
  br i1 %.not, label %11, label %lean_inc.exit15

11:                                               ; preds = %6
  %.val.i = load i32, ptr %8, align 4, !tbaa !4
  %12 = icmp sgt i32 %.val.i, 0
  br i1 %12, label %13, label %15, !prof !13

13:                                               ; preds = %11
  %14 = add nuw i32 %.val.i, 1
  store i32 %14, ptr %8, align 4, !tbaa !4
  br label %18

15:                                               ; preds = %11
  %.not.i = icmp eq i32 %.val.i, 0
  br i1 %.not.i, label %18, label %16

16:                                               ; preds = %15
  tail call void @lean_inc_ref_cold(ptr noundef nonnull %8) #3
  br label %18

lean_inc.exit15:                                  ; preds = %6
  %17 = tail call ptr @lean_apply_1(ptr noundef %3, ptr noundef %5) #3
  br label %lean_inc.exit

18:                                               ; preds = %16, %15, %13
  %19 = tail call ptr @lean_apply_1(ptr noundef %3, ptr noundef %5) #3
  %.val.i16 = load i32, ptr %8, align 4, !tbaa !4
  %20 = icmp sgt i32 %.val.i16, 0
  br i1 %20, label %21, label %23, !prof !13

21:                                               ; preds = %18
  %22 = add nuw i32 %.val.i16, 1
  store i32 %22, ptr %8, align 4, !tbaa !4
  br label %lean_inc.exit

23:                                               ; preds = %18
  %.not.i17 = icmp eq i32 %.val.i16, 0
  br i1 %.not.i17, label %lean_inc.exit, label %24

24:                                               ; preds = %23
  tail call void @lean_inc_ref_cold(ptr noundef nonnull %8) #3
  br label %lean_inc.exit

lean_inc.exit:                                    ; preds = %24, %23, %21, %lean_inc.exit15
  %25 = phi ptr [ %17, %lean_inc.exit15 ], [ %19, %21 ], [ %19, %23 ], [ %19, %24 ]
  tail call void @lean_inc_heartbeat() #3
  %26 = tail call noalias ptr @mi_malloc_small(i64 noundef 48) #3
  %27 = icmp eq ptr %26, null
  br i1 %27, label %28, label %lean_alloc_closure.exit

28:                                               ; preds = %lean_inc.exit
  tail call void @lean_internal_panic_out_of_memory() #4
  unreachable

lean_alloc_closure.exit:                          ; preds = %lean_inc.exit
  %29 = getelementptr inbounds nuw i8, ptr %26, i64 4
  store i32 1, ptr %26, align 4, !tbaa !4
  store i32 -184549328, ptr %29, align 4
  %30 = getelementptr inbounds nuw i8, ptr %26, i64 8
  store ptr @l_StateT_instMonad___rarg___lambda__5, ptr %30, align 8, !tbaa !9
  %31 = getelementptr inbounds nuw i8, ptr %26, i64 16
  store i16 4, ptr %31, align 8, !tbaa !11
  %32 = getelementptr inbounds nuw i8, ptr %26, i64 18
  store i16 3, ptr %32, align 2, !tbaa !11
  %33 = getelementptr inbounds nuw i8, ptr %26, i64 24
  store ptr %4, ptr %33, align 8, !tbaa !9
  %34 = getelementptr inbounds nuw i8, ptr %26, i64 32
  store ptr %0, ptr %34, align 8, !tbaa !9
  %35 = getelementptr inbounds nuw i8, ptr %26, i64 40
  store ptr %8, ptr %35, align 8, !tbaa !9
  %36 = tail call ptr @lean_apply_4(ptr noundef %8, ptr noundef nonnull inttoptr (i64 1 to ptr), ptr noundef nonnull inttoptr (i64 1 to ptr), ptr noundef %25, ptr noundef nonnull %26) #3
  ret ptr %36
}